; Function Attrs: mustprogress uwtable
define void @_ZN3g2o32OptimizationAlgorithmGaussNewtonC2ESt10unique_ptrINS_6SolverESt14default_deleteIS2_EE(ptr noundef nonnull align 8 dereferenceable(88) %0, ptr noundef captures(none) %1) unnamed_addr #4 align 2 {
  %3 = load ptr, ptr %1, align 8, !tbaa !3
  tail call void @_ZN3g2o32OptimizationAlgorithmWithHessianC2ERNS_6SolverE(ptr noundef nonnull align 8 dereferenceable(80) %0, ptr noundef nonnull align 8 dereferenceable(64) %3)
  store ptr getelementptr inbounds nuw inrange(-16, 88) (i8, ptr @_ZTVN3g2o32OptimizationAlgorithmGaussNewtonE, i64 16), ptr %0, align 8, !tbaa !8
  %4 = getelementptr inbounds nuw i8, ptr %0, i64 80
  %5 = load i64, ptr %1, align 8, !tbaa !3
  store i64 %5, ptr %4, align 8, !tbaa !3
  store ptr null, ptr %1, align 8, !tbaa !3
  ret void
}